; ModuleID = '1/1616.c'
source_filename = "1/1616.c"
target datalayout = "e-m:e-p270:32:32-p271:32:32-p272:64:64-i64:64-f80:128-n8:16:32:64-S128"
target triple = "x86_64-pc-linux-gnu"

@.str = private unnamed_addr constant [3 x i8] c"%d\00", align 1
@.str.1 = private unnamed_addr constant [4 x i8] c"%d\0A\00", align 1

; Function Attrs: noinline nounwind uwtable
define dso_local i32 @factor(i32 %0, i32 %1) #0 {
  %3 = alloca i32, align 4
  %4 = alloca i32, align 4
  %5 = alloca i32, align 4
  %6 = alloca i32, align 4
  %7 = alloca i32, align 4
  store i32 %0, i32* %4, align 4
  store i32 %1, i32* %5, align 4
  store i32 1, i32* %7, align 4
  %8 = load i32, i32* %4, align 4
  %9 = load i32, i32* %5, align 4
  %10 = icmp slt i32 %8, %9
  br i1 %10, label %11, label %12

11:                                               ; preds = %2
  store i32 0, i32* %3, align 4
  br label %40

12:                                               ; preds = %2
  %13 = load i32, i32* %5, align 4
  store i32 %13, i32* %6, align 4
  br label %14

14:                                               ; preds = %35, %12
  %15 = load i32, i32* %6, align 4
  %16 = sitofp i32 %15 to double
  %17 = load i32, i32* %4, align 4
  %18 = sitofp i32 %17 to double
  %19 = call double @sqrt(double %18) #3
  %20 = fcmp ole double %16, %19
  br i1 %20, label %21, label %38

21:                                               ; preds = %14
  %22 = load i32, i32* %4, align 4
  %23 = load i32, i32* %6, align 4
  %24 = srem i32 %22, %23
  %25 = icmp eq i32 %24, 0
  br i1 %25, label %26, label %34

26:                                               ; preds = %21
  %27 = load i32, i32* %4, align 4
  %28 = load i32, i32* %6, align 4
  %29 = sdiv i32 %27, %28
  %30 = load i32, i32* %6, align 4
  %31 = call i32 @factor(i32 %29, i32 %30)
  %32 = load i32, i32* %7, align 4
  %33 = add nsw i32 %32, %31
  store i32 %33, i32* %7, align 4
  br label %34

34:                                               ; preds = %26, %21
  br label %35

35:                                               ; preds = %34
  %36 = load i32, i32* %6, align 4
  %37 = add nsw i32 %36, 1
  store i32 %37, i32* %6, align 4
  br label %14

38:                                               ; preds = %14
  %39 = load i32, i32* %7, align 4
  store i32 %39, i32* %3, align 4
  br label %40

40:                                               ; preds = %38, %11
  %41 = load i32, i32* %3, align 4
  ret i32 %41
}

; Function Attrs: nounwind
declare dso_local double @sqrt(double) #1

; Function Attrs: noinline nounwind uwtable
define dso_local i32 @main() #0 {
  %1 = alloca i32, align 4
  %2 = alloca i32, align 4
  %3 = alloca [99 x i32], align 16
  %4 = alloca [99 x i32], align 16
  %5 = alloca i32, align 4
  store i32 0, i32* %1, align 4
  %6 = call i32 (i8*, ...) @__isoc99_scanf(i8* getelementptr inbounds ([3 x i8], [3 x i8]* @.str, i64 0, i64 0), i32* %2)
  store i32 0, i32* %5, align 4
  br label %7

7:                                                ; preds = %24, %0
  %8 = load i32, i32* %5, align 4
  %9 = load i32, i32* %2, align 4
  %10 = icmp slt i32 %8, %9
  br i1 %10, label %11, label %27

11:                                               ; preds = %7
  %12 = load i32, i32* %5, align 4
  %13 = sext i32 %12 to i64
  %14 = getelementptr inbounds [99 x i32], [99 x i32]* %3, i64 0, i64 %13
  %15 = call i32 (i8*, ...) @__isoc99_scanf(i8* getelementptr inbounds ([3 x i8], [3 x i8]* @.str, i64 0, i64 0), i32* %14)
  %16 = load i32, i32* %5, align 4
  %17 = sext i32 %16 to i64
  %18 = getelementptr inbounds [99 x i32], [99 x i32]* %3, i64 0, i64 %17
  %19 = load i32, i32* %18, align 4
  %20 = call i32 @factor(i32 %19, i32 2)
  %21 = load i32, i32* %5, align 4
  %22 = sext i32 %21 to i64
  %23 = getelementptr inbounds [99 x i32], [99 x i32]* %4, i64 0, i64 %22
  store i32 %20, i32* %23, align 4
  br label %24

24:                                               ; preds = %11
  %25 = load i32, i32* %5, align 4
  %26 = add nsw i32 %25, 1
  store i32 %26, i32* %5, align 4
  br label %7

27:                                               ; preds = %7
  store i32 0, i32* %5, align 4
  br label %28

28:                                               ; preds = %38, %27
  %29 = load i32, i32* %5, align 4
  %30 = load i32, i32* %2, align 4
  %31 = icmp slt i32 %29, %30
  br i1 %31, label %32, label %41

32:                                               ; preds = %28
  %33 = load i32, i32* %5, align 4
  %34 = sext i32 %33 to i64
  %35 = getelementptr inbounds [99 x i32], [99 x i32]* %4, i64 0, i64 %34
  %36 = load i32, i32* %35, align 4
  %37 = call i32 (i8*, ...) @printf(i8* getelementptr inbounds ([4 x i8], [4 x i8]* @.str.1, i64 0, i64 0), i32 %36)
  br label %38

38:                                               ; preds = %32
  %39 = load i32, i32* %5, align 4
  %40 = add nsw i32 %39, 1
  store i32 %40, i32* %5, align 4
  br label %28

41:                                               ; preds = %28
  ret i32 0
}

declare dso_local i32 @__isoc99_scanf(i8*, ...) #2

declare dso_local i32 @printf(i8*, ...) #2


!llvm.module.flags = !{!0}
!llvm.ident = !{!1}

!0 = !{i32 1, !"wchar_size", i32 4}
!1 = !{!"clang version 10.0.0-4ubuntu1 "}
