; ModuleID = 'source-C-CXX/0/1616.c'
source_filename = "source-C-CXX/0/1616.c"
target datalayout = "e-m:e-p270:32:32-p271:32:32-p272:64:64-i64:64-f80:128-n8:16:32:64-S128"
target triple = "x86_64-pc-linux-gnu"

@.str = private unnamed_addr constant [3 x i8] c"%d\00", align 1
@.str.1 = private unnamed_addr constant [4 x i8] c"%d\0A\00", align 1

; Function Attrs: nofree nounwind sspstrong uwtable
define dso_local i32 @factor(i32 %0, i32 %1) local_unnamed_addr #0 {
  %3 = icmp slt i32 %0, %1
  br i1 %3, label %24, label %4

4:                                                ; preds = %2
  %5 = sitofp i32 %0 to double
  %6 = sitofp i32 %1 to double
  %7 = tail call double @sqrt(double %5) #4
  %8 = fcmp ult double %7, %6
  br i1 %8, label %24, label %9

9:                                                ; preds = %4, %18
  %10 = phi i32 [ %19, %18 ], [ 1, %4 ]
  %11 = phi i32 [ %20, %18 ], [ %1, %4 ]
  %12 = srem i32 %0, %11
  %13 = sdiv i32 %0, %11
  %14 = icmp eq i32 %12, 0
  br i1 %14, label %15, label %18

15:                                               ; preds = %9
  %16 = tail call i32 @factor(i32 %13, i32 %11)
  %17 = add nsw i32 %16, %10
  br label %18

18:                                               ; preds = %9, %15
  %19 = phi i32 [ %17, %15 ], [ %10, %9 ]
  %20 = add nsw i32 %11, 1
  %21 = sitofp i32 %20 to double
  %22 = tail call double @sqrt(double %5) #4
  %23 = fcmp ult double %22, %21
  br i1 %23, label %24, label %9, !llvm.loop !5

24:                                               ; preds = %18, %4, %2
  %25 = phi i32 [ 0, %2 ], [ 1, %4 ], [ %19, %18 ]
  ret i32 %25
}

; Function Attrs: argmemonly mustprogress nofree nosync nounwind willreturn
declare void @llvm.lifetime.start.p0i8(i64 immarg, i8* nocapture) #1

; Function Attrs: mustprogress nofree nounwind willreturn
declare double @sqrt(double) local_unnamed_addr #2

; Function Attrs: argmemonly mustprogress nofree nosync nounwind willreturn
declare void @llvm.lifetime.end.p0i8(i64 immarg, i8* nocapture) #1

; Function Attrs: nofree nounwind sspstrong uwtable
define dso_local i32 @main() local_unnamed_addr #0 {
  %1 = alloca i32, align 4
  %2 = alloca [99 x i32], align 16
  %3 = alloca [99 x i32], align 16
  %4 = bitcast i32* %1 to i8*
  call void @llvm.lifetime.start.p0i8(i64 4, i8* nonnull %4) #4
  %5 = bitcast [99 x i32]* %2 to i8*
  call void @llvm.lifetime.start.p0i8(i64 396, i8* nonnull %5) #4
  %6 = bitcast [99 x i32]* %3 to i8*
  call void @llvm.lifetime.start.p0i8(i64 396, i8* nonnull %6) #4
  %7 = call i32 (i8*, ...) @__isoc99_scanf(i8* getelementptr inbounds ([3 x i8], [3 x i8]* @.str, i64 0, i64 0), i32* nonnull %1)
  %8 = load i32, i32* %1, align 4, !tbaa !7
  %9 = icmp sgt i32 %8, 0
  br i1 %9, label %12, label %32

10:                                               ; preds = %12
  %11 = icmp sgt i32 %20, 0
  br i1 %11, label %23, label %32

12:                                               ; preds = %0, %12
  %13 = phi i64 [ %19, %12 ], [ 0, %0 ]
  %14 = getelementptr inbounds [99 x i32], [99 x i32]* %2, i64 0, i64 %13
  %15 = call i32 (i8*, ...) @__isoc99_scanf(i8* getelementptr inbounds ([3 x i8], [3 x i8]* @.str, i64 0, i64 0), i32* nonnull %14)
  %16 = load i32, i32* %14, align 4, !tbaa !7
  %17 = call i32 @factor(i32 %16, i32 2)
  %18 = getelementptr inbounds [99 x i32], [99 x i32]* %3, i64 0, i64 %13
  store i32 %17, i32* %18, align 4, !tbaa !7
  %19 = add nuw nsw i64 %13, 1
  %20 = load i32, i32* %1, align 4, !tbaa !7
  %21 = sext i32 %20 to i64
  %22 = icmp slt i64 %19, %21
  br i1 %22, label %12, label %10, !llvm.loop !11

23:                                               ; preds = %10, %23
  %24 = phi i64 [ %28, %23 ], [ 0, %10 ]
  %25 = getelementptr inbounds [99 x i32], [99 x i32]* %3, i64 0, i64 %24
  %26 = load i32, i32* %25, align 4, !tbaa !7
  %27 = call i32 (i8*, ...) @printf(i8* nonnull dereferenceable(1) getelementptr inbounds ([4 x i8], [4 x i8]* @.str.1, i64 0, i64 0), i32 %26)
  %28 = add nuw nsw i64 %24, 1
  %29 = load i32, i32* %1, align 4, !tbaa !7
  %30 = sext i32 %29 to i64
  %31 = icmp slt i64 %28, %30
  br i1 %31, label %23, label %32, !llvm.loop !12

32:                                               ; preds = %23, %0, %10
  call void @llvm.lifetime.end.p0i8(i64 396, i8* nonnull %6) #4
  call void @llvm.lifetime.end.p0i8(i64 396, i8* nonnull %5) #4
  call void @llvm.lifetime.end.p0i8(i64 4, i8* nonnull %4) #4
  ret i32 0
}

; Function Attrs: nofree nounwind
declare noundef i32 @__isoc99_scanf(i8* nocapture noundef readonly, ...) local_unnamed_addr #3

; Function Attrs: nofree nounwind
declare noundef i32 @printf(i8* nocapture noundef readonly, ...) local_unnamed_addr #3


!llvm.module.flags = !{!0, !1, !2, !3}
!llvm.ident = !{!4}

!0 = !{i32 1, !"wchar_size", i32 4}
!1 = !{i32 7, !"PIC Level", i32 2}
!2 = !{i32 7, !"PIE Level", i32 2}
!3 = !{i32 7, !"uwtable", i32 1}
!4 = !{!"clang version 13.0.0"}
!5 = distinct !{!5, !6}
!6 = !{!"llvm.loop.mustprogress"}
!7 = !{!8, !8, i64 0}
!8 = !{!"int", !9, i64 0}
!9 = !{!"omnipotent char", !10, i64 0}
!10 = !{!"Simple C/C++ TBAA"}
!11 = distinct !{!11, !6}
!12 = distinct !{!12, !6}
